target datalayout = "e-m:e-p270:32:32-p271:32:32-p272:64:64-i64:64-i128:128-f80:128-n8:16:32:64-S128"
target triple = "x86_64-pc-linux-gnu"

; Function Attrs: inlinehint mustprogress nounwind uwtable
define linkonce_odr noundef ptr @_ZN13duckdb_snappy6Varint16Parse32WithLimitEPKcS2_Pj(ptr noundef %0, ptr noundef %1, ptr noundef %2) #3 comdat align 2 {
  %4 = alloca ptr, align 8
  %5 = alloca ptr, align 8
  %6 = alloca ptr, align 8
  %7 = alloca ptr, align 8
  %8 = alloca ptr, align 8
  %9 = alloca ptr, align 8
  %10 = alloca i32, align 4
  %11 = alloca i32, align 4
  %12 = alloca i32, align 4
  store ptr %0, ptr %5, align 8, !tbaa !7
  store ptr %1, ptr %6, align 8, !tbaa !7
  store ptr %2, ptr %7, align 8, !tbaa !14
  call void @llvm.lifetime.start.p0(i64 8, ptr %8) #17
  %13 = load ptr, ptr %5, align 8, !tbaa !7
  store ptr %13, ptr %8, align 8, !tbaa !7
  call void @llvm.lifetime.start.p0(i64 8, ptr %9) #17
  %14 = load ptr, ptr %6, align 8, !tbaa !7
  store ptr %14, ptr %9, align 8, !tbaa !7
  call void @llvm.lifetime.start.p0(i64 4, ptr %10) #17
  call void @llvm.lifetime.start.p0(i64 4, ptr %11) #17
  %15 = load ptr, ptr %8, align 8, !tbaa !7
  %16 = load ptr, ptr %9, align 8, !tbaa !7
  %17 = icmp uge ptr %15, %16
  br i1 %17, label %18, label %19

18:                                               ; preds = %3
  store ptr null, ptr %4, align 8
  store i32 1, ptr %12, align 4
  br label %106

19:                                               ; preds = %3
  %20 = load ptr, ptr %8, align 8, !tbaa !7
  %21 = getelementptr inbounds nuw i8, ptr %20, i32 1
  store ptr %21, ptr %8, align 8, !tbaa !7
  %22 = load i8, ptr %20, align 1, !tbaa !16
  %23 = zext i8 %22 to i32
  store i32 %23, ptr %10, align 4, !tbaa !12
  %24 = load i32, ptr %10, align 4, !tbaa !12
  %25 = and i32 %24, 127
  store i32 %25, ptr %11, align 4, !tbaa !12
  %26 = load i32, ptr %10, align 4, !tbaa !12
  %27 = icmp ult i32 %26, 128
  br i1 %27, label %28, label %29

28:                                               ; preds = %19
  br label %102

29:                                               ; preds = %19
  %30 = load ptr, ptr %8, align 8, !tbaa !7
  %31 = load ptr, ptr %9, align 8, !tbaa !7
  %32 = icmp uge ptr %30, %31
  br i1 %32, label %33, label %34

33:                                               ; preds = %29
  store ptr null, ptr %4, align 8
  store i32 1, ptr %12, align 4
  br label %106

34:                                               ; preds = %29
  %35 = load ptr, ptr %8, align 8, !tbaa !7
  %36 = getelementptr inbounds nuw i8, ptr %35, i32 1
  store ptr %36, ptr %8, align 8, !tbaa !7
  %37 = load i8, ptr %35, align 1, !tbaa !16
  %38 = zext i8 %37 to i32
  store i32 %38, ptr %10, align 4, !tbaa !12
  %39 = load i32, ptr %10, align 4, !tbaa !12
  %40 = and i32 %39, 127
  %41 = shl i32 %40, 7
  %42 = load i32, ptr %11, align 4, !tbaa !12
  %43 = or i32 %42, %41
  store i32 %43, ptr %11, align 4, !tbaa !12
  %44 = load i32, ptr %10, align 4, !tbaa !12
  %45 = icmp ult i32 %44, 128
  br i1 %45, label %46, label %47

46:                                               ; preds = %34
  br label %102

47:                                               ; preds = %34
  %48 = load ptr, ptr %8, align 8, !tbaa !7
  %49 = load ptr, ptr %9, align 8, !tbaa !7
  %50 = icmp uge ptr %48, %49
  br i1 %50, label %51, label %52

51:                                               ; preds = %47
  store ptr null, ptr %4, align 8
  store i32 1, ptr %12, align 4
  br label %106

52:                                               ; preds = %47
  %53 = load ptr, ptr %8, align 8, !tbaa !7
  %54 = getelementptr inbounds nuw i8, ptr %53, i32 1
  store ptr %54, ptr %8, align 8, !tbaa !7
  %55 = load i8, ptr %53, align 1, !tbaa !16
  %56 = zext i8 %55 to i32
  store i32 %56, ptr %10, align 4, !tbaa !12
  %57 = load i32, ptr %10, align 4, !tbaa !12
  %58 = and i32 %57, 127
  %59 = shl i32 %58, 14
  %60 = load i32, ptr %11, align 4, !tbaa !12
  %61 = or i32 %60, %59
  store i32 %61, ptr %11, align 4, !tbaa !12
  %62 = load i32, ptr %10, align 4, !tbaa !12
  %63 = icmp ult i32 %62, 128
  br i1 %63, label %64, label %65

64:                                               ; preds = %52
  br label %102

65:                                               ; preds = %52
  %66 = load ptr, ptr %8, align 8, !tbaa !7
  %67 = load ptr, ptr %9, align 8, !tbaa !7
  %68 = icmp uge ptr %66, %67
  br i1 %68, label %69, label %70

69:                                               ; preds = %65
  store ptr null, ptr %4, align 8
  store i32 1, ptr %12, align 4
  br label %106

70:                                               ; preds = %65
  %71 = load ptr, ptr %8, align 8, !tbaa !7
  %72 = getelementptr inbounds nuw i8, ptr %71, i32 1
  store ptr %72, ptr %8, align 8, !tbaa !7
  %73 = load i8, ptr %71, align 1, !tbaa !16
  %74 = zext i8 %73 to i32
  store i32 %74, ptr %10, align 4, !tbaa !12
  %75 = load i32, ptr %10, align 4, !tbaa !12
  %76 = and i32 %75, 127
  %77 = shl i32 %76, 21
  %78 = load i32, ptr %11, align 4, !tbaa !12
  %79 = or i32 %78, %77
  store i32 %79, ptr %11, align 4, !tbaa !12
  %80 = load i32, ptr %10, align 4, !tbaa !12
  %81 = icmp ult i32 %80, 128
  br i1 %81, label %82, label %83

82:                                               ; preds = %70
  br label %102

83:                                               ; preds = %70
  %84 = load ptr, ptr %8, align 8, !tbaa !7
  %85 = load ptr, ptr %9, align 8, !tbaa !7
  %86 = icmp uge ptr %84, %85
  br i1 %86, label %87, label %88

87:                                               ; preds = %83
  store ptr null, ptr %4, align 8
  store i32 1, ptr %12, align 4
  br label %106

88:                                               ; preds = %83
  %89 = load ptr, ptr %8, align 8, !tbaa !7
  %90 = getelementptr inbounds nuw i8, ptr %89, i32 1
  store ptr %90, ptr %8, align 8, !tbaa !7
  %91 = load i8, ptr %89, align 1, !tbaa !16
  %92 = zext i8 %91 to i32
  store i32 %92, ptr %10, align 4, !tbaa !12
  %93 = load i32, ptr %10, align 4, !tbaa !12
  %94 = and i32 %93, 127
  %95 = shl i32 %94, 28
  %96 = load i32, ptr %11, align 4, !tbaa !12
  %97 = or i32 %96, %95
  store i32 %97, ptr %11, align 4, !tbaa !12
  %98 = load i32, ptr %10, align 4, !tbaa !12
  %99 = icmp ult i32 %98, 16
  br i1 %99, label %100, label %101

100:                                              ; preds = %88
  br label %102

101:                                              ; preds = %88
  store ptr null, ptr %4, align 8
  store i32 1, ptr %12, align 4
  br label %106

102:                                              ; preds = %100, %82, %64, %46, %28
  %103 = load i32, ptr %11, align 4, !tbaa !12
  %104 = load ptr, ptr %7, align 8, !tbaa !14
  store i32 %103, ptr %104, align 4, !tbaa !12
  %105 = load ptr, ptr %8, align 8, !tbaa !7
  store ptr %105, ptr %4, align 8
  store i32 1, ptr %12, align 4
  br label %106

106:                                              ; preds = %102, %101, %87, %69, %51, %33, %18
  call void @llvm.lifetime.end.p0(i64 4, ptr %11) #17
  call void @llvm.lifetime.end.p0(i64 4, ptr %10) #17
  call void @llvm.lifetime.end.p0(i64 8, ptr %9) #17
  call void @llvm.lifetime.end.p0(i64 8, ptr %8) #17
  %107 = load ptr, ptr %4, align 8
  ret ptr %107
}

; Function Attrs: mustprogress uwtable
define noundef zeroext i1 @_ZN13duckdb_snappy21GetUncompressedLengthEPKcmPm(ptr noundef %0, i64 noundef %1, ptr noundef %2) #1 {
  %4 = alloca i1, align 1
  %5 = alloca ptr, align 8
  %6 = alloca i64, align 8
  %7 = alloca ptr, align 8
  %8 = alloca i32, align 4
  %9 = alloca ptr, align 8
  %10 = alloca i32, align 4
  store ptr %0, ptr %5, align 8, !tbaa !7
  store i64 %1, ptr %6, align 8, !tbaa !3
  store ptr %2, ptr %7, align 8, !tbaa !10
  call void @llvm.lifetime.start.p0(i64 4, ptr %8) #17
  store i32 0, ptr %8, align 4, !tbaa !12
  call void @llvm.lifetime.start.p0(i64 8, ptr %9) #17
  %11 = load ptr, ptr %5, align 8, !tbaa !7
  %12 = load i64, ptr %6, align 8, !tbaa !3
  %13 = getelementptr inbounds nuw i8, ptr %11, i64 %12
  store ptr %13, ptr %9, align 8, !tbaa !7
  %14 = load ptr, ptr %5, align 8, !tbaa !7
  %15 = load ptr, ptr %9, align 8, !tbaa !7
  %16 = call noundef ptr @_ZN13duckdb_snappy6Varint16Parse32WithLimitEPKcS2_Pj(ptr noundef %14, ptr noundef %15, ptr noundef %8)
  %17 = icmp ne ptr %16, null
  br i1 %17, label %18, label %22

18:                                               ; preds = %3
  %19 = load i32, ptr %8, align 4, !tbaa !12
  %20 = zext i32 %19 to i64
  %21 = load ptr, ptr %7, align 8, !tbaa !10
  store i64 %20, ptr %21, align 8, !tbaa !3
  store i1 true, ptr %4, align 1
  store i32 1, ptr %10, align 4
  br label %23

22:                                               ; preds = %3
  store i1 false, ptr %4, align 1
  store i32 1, ptr %10, align 4
  br label %23

23:                                               ; preds = %22, %18
  call void @llvm.lifetime.end.p0(i64 8, ptr %9) #17
  call void @llvm.lifetime.end.p0(i64 4, ptr %8) #17
  %24 = load i1, ptr %4, align 1
  ret i1 %24
}