; Function Attrs: mustprogress nofree norecurse nosync nounwind willreturn memory(argmem: readwrite) uwtable
define noundef zeroext i1 @_ZN13duckdb_snappy21GetUncompressedLengthEPKcmPm(ptr noundef readonly captures(none) %0, i64 noundef %1, ptr noundef writeonly captures(none) %2) local_unnamed_addr #1 {
  %.not.i.not = icmp eq i64 %1, 0
  br i1 %.not.i.not, label %_ZN13duckdb_snappy6Varint16Parse32WithLimitEPKcS2_Pj.exit.thread, label %4

4:                                                ; preds = %3
  %5 = getelementptr inbounds nuw i8, ptr %0, i64 1
  %6 = load i8, ptr %0, align 1, !tbaa !3
  %7 = and i8 %6, 127
  %8 = zext nneg i8 %7 to i32
  %9 = icmp sgt i8 %6, -1
  br i1 %9, label %_ZN13duckdb_snappy6Varint16Parse32WithLimitEPKcS2_Pj.exit, label %10

10:                                               ; preds = %4
  %.not42.i.not = icmp eq i64 %1, 1
  br i1 %.not42.i.not, label %_ZN13duckdb_snappy6Varint16Parse32WithLimitEPKcS2_Pj.exit.thread, label %11

11:                                               ; preds = %10
  %12 = getelementptr inbounds nuw i8, ptr %0, i64 2
  %13 = load i8, ptr %5, align 1, !tbaa !3
  %14 = zext i8 %13 to i32
  %15 = shl nuw nsw i32 %14, 7
  %16 = and i32 %15, 16256
  %17 = or disjoint i32 %16, %8
  %18 = icmp sgt i8 %13, -1
  br i1 %18, label %_ZN13duckdb_snappy6Varint16Parse32WithLimitEPKcS2_Pj.exit, label %19

19:                                               ; preds = %11
  %.not43.i = icmp samesign ugt i64 %1, 2
  br i1 %.not43.i, label %20, label %_ZN13duckdb_snappy6Varint16Parse32WithLimitEPKcS2_Pj.exit.thread

20:                                               ; preds = %19
  %21 = getelementptr inbounds nuw i8, ptr %0, i64 3
  %22 = load i8, ptr %12, align 1, !tbaa !3
  %23 = zext i8 %22 to i32
  %24 = shl nuw nsw i32 %23, 14
  %25 = and i32 %24, 2080768
  %26 = or disjoint i32 %25, %17
  %27 = icmp sgt i8 %22, -1
  br i1 %27, label %_ZN13duckdb_snappy6Varint16Parse32WithLimitEPKcS2_Pj.exit, label %28

28:                                               ; preds = %20
  %.not44.i.not = icmp eq i64 %1, 3
  br i1 %.not44.i.not, label %_ZN13duckdb_snappy6Varint16Parse32WithLimitEPKcS2_Pj.exit.thread, label %29

29:                                               ; preds = %28
  %30 = getelementptr inbounds nuw i8, ptr %0, i64 4
  %31 = load i8, ptr %21, align 1, !tbaa !3
  %32 = zext i8 %31 to i32
  %33 = shl nuw nsw i32 %32, 21
  %34 = and i32 %33, 266338304
  %35 = or disjoint i32 %34, %26
  %36 = icmp sgt i8 %31, -1
  br i1 %36, label %_ZN13duckdb_snappy6Varint16Parse32WithLimitEPKcS2_Pj.exit, label %37

37:                                               ; preds = %29
  %.not45.i = icmp samesign ugt i64 %1, 4
  br i1 %.not45.i, label %38, label %_ZN13duckdb_snappy6Varint16Parse32WithLimitEPKcS2_Pj.exit.thread

38:                                               ; preds = %37
  %39 = load i8, ptr %30, align 1, !tbaa !3
  %40 = zext i8 %39 to i32
  %41 = shl i32 %40, 28
  %42 = or disjoint i32 %41, %35
  %43 = icmp ult i8 %39, 16
  br i1 %43, label %_ZN13duckdb_snappy6Varint16Parse32WithLimitEPKcS2_Pj.exit, label %_ZN13duckdb_snappy6Varint16Parse32WithLimitEPKcS2_Pj.exit.thread

_ZN13duckdb_snappy6Varint16Parse32WithLimitEPKcS2_Pj.exit: ; preds = %38, %29, %20, %11, %4
  %.0 = phi i32 [ %8, %4 ], [ %17, %11 ], [ %26, %20 ], [ %35, %29 ], [ %42, %38 ]
  %44 = zext i32 %.0 to i64
  store i64 %44, ptr %2, align 8, !tbaa !6
  br label %_ZN13duckdb_snappy6Varint16Parse32WithLimitEPKcS2_Pj.exit.thread

_ZN13duckdb_snappy6Varint16Parse32WithLimitEPKcS2_Pj.exit.thread: ; preds = %38, %37, %28, %19, %10, %3, %_ZN13duckdb_snappy6Varint16Parse32WithLimitEPKcS2_Pj.exit
  %.not8 = phi i1 [ true, %_ZN13duckdb_snappy6Varint16Parse32WithLimitEPKcS2_Pj.exit ], [ false, %3 ], [ false, %10 ], [ false, %19 ], [ false, %28 ], [ false, %37 ], [ false, %38 ]
  ret i1 %.not8
}